; Function Attrs: mustprogress uwtable
define dso_local range(i64 0, 4294967296) i64 @meshopt_optimizeVertexFetch(ptr noundef writeonly %0, ptr noundef captures(none) %1, i64 noundef %2, ptr noundef readonly %3, i64 noundef %4, i64 noundef %5) local_unnamed_addr #3 personality ptr @__gxx_personality_v0 {
  %7 = alloca %class.meshopt_Allocator, align 8
  call void @llvm.lifetime.start.p0(i64 200, ptr nonnull %7) #10
  call void @llvm.memset.p0.i64(ptr noundef nonnull align 8 dereferenceable(200) %7, i8 0, i64 200, i1 false)
  %8 = icmp eq ptr %0, %3
  %.sroa.gep = getelementptr inbounds nuw i8, ptr %7, i64 8
  br i1 %8, label %9, label %17

9:                                                ; preds = %6
  %10 = mul i64 %5, %4
  %11 = load ptr, ptr @_ZN17meshopt_Allocator8StorageTIvE8allocateE, align 8, !tbaa !10
  %12 = invoke noundef ptr %11(i64 noundef %10)
          to label %13 unwind label %15

13:                                               ; preds = %9
  %14 = getelementptr inbounds nuw i8, ptr %7, i64 192
  store i64 1, ptr %14, align 8, !tbaa !12
  store ptr %12, ptr %7, align 8, !tbaa !10
  tail call void @llvm.memcpy.p0.p0.i64(ptr align 1 %12, ptr align 1 %3, i64 %10, i1 false)
  br label %17

15:                                               ; preds = %9
  %16 = landingpad { ptr, i32 }
          cleanup
  br label %53

17:                                               ; preds = %13, %6
  %.sroa.phi = phi ptr [ %.sroa.gep, %13 ], [ %7, %6 ]
  %18 = phi i64 [ 2, %13 ], [ 1, %6 ]
  %.0 = phi ptr [ %12, %13 ], [ %3, %6 ]
  %19 = load ptr, ptr @_ZN17meshopt_Allocator8StorageTIvE8allocateE, align 8, !tbaa !10
  %20 = icmp ugt i64 %4, 4611686018427387903
  %21 = shl i64 %4, 2
  %22 = select i1 %20, i64 -1, i64 %21
  %23 = invoke noundef ptr %19(i64 noundef %22)
          to label %24 unwind label %35

24:                                               ; preds = %17
  store ptr %23, ptr %.sroa.phi, align 8, !tbaa !10
  tail call void @llvm.memset.p0.i64(ptr align 4 %23, i8 -1, i64 %21, i1 false)
  %.not = icmp eq i64 %2, 0
  br i1 %.not, label %._crit_edge, label %.lr.ph

._crit_edge.loopexit:                             ; preds = %50
  %25 = zext i32 %.1 to i64
  br label %._crit_edge

._crit_edge:                                      ; preds = %._crit_edge.loopexit, %24
  %.036.lcssa = phi i64 [ 0, %24 ], [ %25, %._crit_edge.loopexit ]
  br label %26

26:                                               ; preds = %27, %._crit_edge
  %.0.i = phi i64 [ %18, %._crit_edge ], [ %29, %27 ]
  %.not.i = icmp eq i64 %.0.i, 0
  br i1 %.not.i, label %_ZN17meshopt_AllocatorD2Ev.exit, label %27

27:                                               ; preds = %26
  %28 = load ptr, ptr @_ZN17meshopt_Allocator8StorageTIvE10deallocateE, align 8, !tbaa !10
  %29 = add i64 %.0.i, -1
  %30 = getelementptr inbounds nuw [24 x ptr], ptr %7, i64 0, i64 %29
  %31 = load ptr, ptr %30, align 8, !tbaa !10
  invoke void %28(ptr noundef %31)
          to label %26 unwind label %32, !llvm.loop !15

32:                                               ; preds = %27
  %33 = landingpad { ptr, i32 }
          catch ptr null
  %34 = extractvalue { ptr, i32 } %33, 0
  tail call void @__clang_call_terminate(ptr %34) #11
  unreachable

_ZN17meshopt_AllocatorD2Ev.exit:                  ; preds = %26
  call void @llvm.lifetime.end.p0(i64 200, ptr nonnull %7) #10
  ret i64 %.036.lcssa

35:                                               ; preds = %17
  %36 = landingpad { ptr, i32 }
          cleanup
  br label %53

.lr.ph:                                           ; preds = %24, %50
  %.03542 = phi i64 [ %52, %50 ], [ 0, %24 ]
  %.03641 = phi i32 [ %.1, %50 ], [ 0, %24 ]
  %37 = getelementptr inbounds nuw i32, ptr %1, i64 %.03542
  %38 = load i32, ptr %37, align 4, !tbaa !4
  %39 = zext i32 %38 to i64
  %40 = getelementptr inbounds nuw i32, ptr %23, i64 %39
  %41 = load i32, ptr %40, align 4, !tbaa !4
  %42 = icmp eq i32 %41, -1
  br i1 %42, label %43, label %50

43:                                               ; preds = %.lr.ph
  %44 = zext i32 %.03641 to i64
  %45 = mul i64 %5, %44
  %46 = getelementptr inbounds nuw i8, ptr %0, i64 %45
  %47 = mul i64 %5, %39
  %48 = getelementptr inbounds nuw i8, ptr %.0, i64 %47
  tail call void @llvm.memcpy.p0.p0.i64(ptr align 1 %46, ptr align 1 %48, i64 %5, i1 false)
  %49 = add i32 %.03641, 1
  store i32 %.03641, ptr %40, align 4, !tbaa !4
  br label %50

50:                                               ; preds = %43, %.lr.ph
  %51 = phi i32 [ %.03641, %43 ], [ %41, %.lr.ph ]
  %.1 = phi i32 [ %49, %43 ], [ %.03641, %.lr.ph ]
  store i32 %51, ptr %37, align 4, !tbaa !4
  %52 = add nuw i64 %.03542, 1
  %exitcond.not = icmp eq i64 %52, %2
  br i1 %exitcond.not, label %._crit_edge.loopexit, label %.lr.ph, !llvm.loop !16

53:                                               ; preds = %35, %15
  %.pn = phi { ptr, i32 } [ %36, %35 ], [ %16, %15 ]
  call void @_ZN17meshopt_AllocatorD2Ev(ptr noundef nonnull align 8 dereferenceable(200) %7) #10
  call void @llvm.lifetime.end.p0(i64 200, ptr nonnull %7) #10
  resume { ptr, i32 } %.pn
}